; Function Attrs: mustprogress nofree norecurse nosync nounwind willreturn memory(read, inaccessiblemem: none) uwtable
define hidden noundef i32 @_ZNK5nlsat6solver6bvalueEj(ptr nocapture noundef nonnull readonly align 8 dereferenceable(16) %this, i32 noundef %b) local_unnamed_addr #7 align 2 {
entry:
  %0 = load ptr, ptr %this, align 8
  %m_bvalues = getelementptr inbounds i8, ptr %0, i64 368
  %1 = load ptr, ptr %m_bvalues, align 8
  %idxprom.i = zext i32 %b to i64
  %arrayidx.i = getelementptr inbounds i32, ptr %1, i64 %idxprom.i
  %2 = load i32, ptr %arrayidx.i, align 4
  ret i32 %2
}